target datalayout = "e-m:e-p270:32:32-p271:32:32-p272:64:64-i64:64-i128:128-f80:128-n8:16:32:64-S128"
target triple = "x86_64-pc-linux-gnu"

%struct.LOCALNET = type { ptr, [4 x i32], [4 x i32], i32 }

@lnet = dso_local global ptr null, align 8

; Function Attrs: nounwind uwtable
define dso_local void @localnets_free() #0 {
  %1 = alloca ptr, align 8
  br label %2

2:                                                ; preds = %5, %0
  %3 = load ptr, ptr @lnet, align 8
  %4 = icmp ne ptr %3, null
  br i1 %4, label %5, label %11

5:                                                ; preds = %2
  %6 = load ptr, ptr @lnet, align 8
  %7 = getelementptr inbounds %struct.LOCALNET, ptr %6, i32 0, i32 0
  %8 = load ptr, ptr %7, align 8
  store ptr %8, ptr %1, align 8
  %9 = load ptr, ptr @lnet, align 8
  call void @free(ptr noundef %9) #8
  %10 = load ptr, ptr %1, align 8
  store ptr %10, ptr @lnet, align 8
  br label %2

11:                                               ; preds = %2
  ret void
}