; Function Attrs: nounwind uwtable
define dso_local void @localnets_free() local_unnamed_addr #0 {
  %.pr = load ptr, ptr @lnet, align 8
  %.not1 = icmp eq ptr %.pr, null
  br i1 %.not1, label %._crit_edge, label %.lr.ph

.lr.ph:                                           ; preds = %0, %.lr.ph
  %1 = phi ptr [ %2, %.lr.ph ], [ %.pr, %0 ]
  %2 = load ptr, ptr %1, align 8
  tail call void @free(ptr noundef nonnull %1) #13
  store ptr %2, ptr @lnet, align 8
  %.not = icmp eq ptr %2, null
  br i1 %.not, label %._crit_edge, label %.lr.ph

._crit_edge:                                      ; preds = %.lr.ph, %0
  ret void
}